target datalayout = "e-m:e-p270:32:32-p271:32:32-p272:64:64-i64:64-i128:128-f80:128-n8:16:32:64-S128"
target triple = "x86_64-pc-linux-gnu"

%class.Klass = type <{ %class.Metadata, i32, i32, i32, i32, ptr, ptr, ptr, [8 x ptr], %class.OopHandle, ptr, ptr, ptr, ptr, ptr, i32, %class.AccessFlags, i64, i64, i8, i8, i16, i16, [2 x i8], i32, [4 x i8] }>
%class.Metadata = type { ptr }
%class.OopHandle = type { ptr }
%class.AccessFlags = type { i32 }
%class.ClassFileParser = type { ptr, ptr, ptr, i8, i8, i32, ptr, ptr, ptr, ptr, ptr, ptr, ptr, i16, ptr, ptr, ptr, ptr, ptr, ptr, ptr, ptr, ptr, ptr, ptr, ptr, ptr, ptr, ptr, ptr, ptr, [128 x i8], i32, i32, i32, %class.Handle, %class.AccessFlags, i32, i16, i8, i32, ptr, i16, i16, i16, i16, i16, i16, i16, i16, i8, i8, i8, i8, i8, i8, i8, i8, i8, i32 }
%class.Handle = type { ptr }

; Function Attrs: mustprogress nounwind uwtable
define linkonce_odr hidden void @_ZN11AccessFlags16set_is_syntheticEv(ptr noundef nonnull align 4 dereferenceable(4) %0) #1 comdat align 2 {
  %2 = alloca ptr, align 8
  store ptr %0, ptr %2, align 8
  %3 = load ptr, ptr %2, align 8
  %4 = getelementptr inbounds %class.AccessFlags, ptr %3, i32 0, i32 0
  %5 = load i32, ptr %4, align 4
  %6 = or i32 %5, 4096
  store i32 %6, ptr %4, align 4
  ret void
}

; Function Attrs: mustprogress nounwind uwtable
define linkonce_odr hidden void @_ZN5Klass16set_is_syntheticEv(ptr noundef nonnull align 8 dereferenceable(196) %0) #1 comdat align 2 {
  %2 = alloca ptr, align 8
  store ptr %0, ptr %2, align 8
  %3 = load ptr, ptr %2, align 8
  %4 = getelementptr inbounds %class.Klass, ptr %3, i32 0, i32 16
  call void @_ZN11AccessFlags16set_is_syntheticEv(ptr noundef nonnull align 4 dereferenceable(4) %4)
  ret void
}

; Function Attrs: mustprogress nounwind uwtable
define hidden void @_ZN15ClassFileParser29apply_parsed_class_attributesEP13InstanceKlass(ptr noundef nonnull align 8 dereferenceable(440) %0, ptr noundef %1) #1 align 2 {
  %3 = alloca ptr, align 8
  %4 = alloca ptr, align 8
  store ptr %0, ptr %3, align 8
  store ptr %1, ptr %4, align 8
  %5 = load ptr, ptr %3, align 8
  %6 = getelementptr inbounds %class.ClassFileParser, ptr %5, i32 0, i32 39
  %7 = load i8, ptr %6, align 2
  %8 = trunc i8 %7 to i1
  br i1 %8, label %9, label %11

9:                                                ; preds = %2
  %10 = load ptr, ptr %4, align 8
  call void @_ZN5Klass16set_is_syntheticEv(ptr noundef nonnull align 8 dereferenceable(196) %10)
  br label %11

11:                                               ; preds = %9, %2
  %12 = getelementptr inbounds %class.ClassFileParser, ptr %5, i32 0, i32 42
  %13 = load i16, ptr %12, align 8
  %14 = zext i16 %13 to i32
  %15 = icmp ne i32 %14, 0
  br i1 %15, label %16, label %20

16:                                               ; preds = %11
  %17 = load ptr, ptr %4, align 8
  %18 = getelementptr inbounds %class.ClassFileParser, ptr %5, i32 0, i32 42
  %19 = load i16, ptr %18, align 8
  call void @_ZN13InstanceKlass26set_source_file_name_indexEt(ptr noundef nonnull align 8 dereferenceable(464) %17, i16 noundef zeroext %19)
  br label %20

20:                                               ; preds = %16, %11
  %21 = getelementptr inbounds %class.ClassFileParser, ptr %5, i32 0, i32 43
  %22 = load i16, ptr %21, align 2
  %23 = zext i16 %22 to i32
  %24 = icmp ne i32 %23, 0
  br i1 %24, label %25, label %29

25:                                               ; preds = %20
  %26 = load ptr, ptr %4, align 8
  %27 = getelementptr inbounds %class.ClassFileParser, ptr %5, i32 0, i32 43
  %28 = load i16, ptr %27, align 2
  call void @_ZN13InstanceKlass27set_generic_signature_indexEt(ptr noundef nonnull align 8 dereferenceable(464) %26, i16 noundef zeroext %28)
  br label %29

29:                                               ; preds = %25, %20
  %30 = getelementptr inbounds %class.ClassFileParser, ptr %5, i32 0, i32 41
  %31 = load ptr, ptr %30, align 8
  %32 = icmp ne ptr %31, null
  br i1 %32, label %33, label %39

33:                                               ; preds = %29
  %34 = load ptr, ptr %4, align 8
  %35 = getelementptr inbounds %class.ClassFileParser, ptr %5, i32 0, i32 41
  %36 = load ptr, ptr %35, align 8
  %37 = getelementptr inbounds %class.ClassFileParser, ptr %5, i32 0, i32 40
  %38 = load i32, ptr %37, align 4
  call void @_ZN13InstanceKlass26set_source_debug_extensionEPKci(ptr noundef nonnull align 8 dereferenceable(464) %34, ptr noundef %36, i32 noundef %38)
  br label %39

39:                                               ; preds = %33, %29
  ret void
}