; Function Attrs: mustprogress nounwind uwtable
define hidden void @_ZN15ClassFileParser29apply_parsed_class_attributesEP13InstanceKlass(ptr nocapture noundef nonnull readonly align 8 dereferenceable(440) %0, ptr noundef %1) local_unnamed_addr #1 align 2 {
  %3 = getelementptr inbounds i8, ptr %0, i64 394
  %4 = load i8, ptr %3, align 2
  %5 = trunc i8 %4 to i1
  br i1 %5, label %6, label %10

6:                                                ; preds = %2
  %7 = getelementptr inbounds i8, ptr %1, i64 164
  %8 = load i32, ptr %7, align 4
  %9 = or i32 %8, 4096
  store i32 %9, ptr %7, align 4
  br label %10

10:                                               ; preds = %6, %2
  %11 = getelementptr inbounds i8, ptr %0, i64 408
  %12 = load i16, ptr %11, align 8
  %.not = icmp eq i16 %12, 0
  br i1 %.not, label %14, label %13

13:                                               ; preds = %10
  tail call void @_ZN13InstanceKlass26set_source_file_name_indexEt(ptr noundef nonnull align 8 dereferenceable(464) %1, i16 noundef zeroext %12) #23
  br label %14

14:                                               ; preds = %13, %10
  %15 = getelementptr inbounds i8, ptr %0, i64 410
  %16 = load i16, ptr %15, align 2
  %.not5 = icmp eq i16 %16, 0
  br i1 %.not5, label %18, label %17

17:                                               ; preds = %14
  tail call void @_ZN13InstanceKlass27set_generic_signature_indexEt(ptr noundef nonnull align 8 dereferenceable(464) %1, i16 noundef zeroext %16) #23
  br label %18

18:                                               ; preds = %17, %14
  %19 = getelementptr inbounds i8, ptr %0, i64 400
  %20 = load ptr, ptr %19, align 8
  %.not6 = icmp eq ptr %20, null
  br i1 %.not6, label %24, label %21

21:                                               ; preds = %18
  %22 = getelementptr inbounds i8, ptr %0, i64 396
  %23 = load i32, ptr %22, align 4
  tail call void @_ZN13InstanceKlass26set_source_debug_extensionEPKci(ptr noundef nonnull align 8 dereferenceable(464) %1, ptr noundef nonnull %20, i32 noundef %23) #23
  br label %24

24:                                               ; preds = %21, %18
  ret void
}